Certificate:
    Data:
        Version: 3 (0x2)
        Serial Number: 1 (0x1)
        Signature Algorithm: sha256WithRSAEncryption
        Issuer: CN=devcert
        Validity
            Not Before: May 13 23:26:35 2020 GMT
            Not After : Aug 16 23:26:35 2022 GMT
        Subject: CN=localhost
        Subject Public Key Info:
            Public Key Algorithm: rsaEncryption
                RSA Public-Key: (2048 bit)
                Modulus:
                    00:e8:45:7a:60:cd:ae:f5:84:3d:34:92:b1:79:64:
                    39:99:2f:28:f0:e5:5d:35:3b:77:8b:bd:9e:e7:29:
                    5f:b8:d0:1e:ab:52:0a:aa:6f:b4:df:59:0c:ca:d7:
                    f9:ab:08:50:f5:3f:9f:db:da:7e:b1:c1:55:f4:4c:
                    53:f9:9a:cf:f9:15:45:15:fd:08:84:11:da:b8:51:
                    22:e1:3a:20:a4:70:e7:86:2e:ab:84:a7:de:49:e0:
                    47:2d:22:c4:c6:58:fc:41:ea:15:6e:33:9d:f1:26:
                    b7:fd:b7:aa:54:9a:47:65:41:e5:e4:f3:dc:e9:40:
                    0f:02:c0:ce:61:28:b2:f1:7d:d7:ed:a7:12:40:b3:
                    d3:20:e8:06:55:8f:d8:ba:ef:ce:13:0c:b8:d4:18:
                    fc:76:7f:9b:ac:46:32:f1:49:ce:4e:99:69:39:4d:
                    93:2c:a9:16:27:67:7c:de:fd:41:c2:d7:66:a6:69:
                    3a:1b:f3:e0:ce:4c:62:be:17:b4:a6:16:6f:45:45:
                    fa:1d:40:d2:6b:c5:8c:1d:9c:62:b5:ed:0a:11:7b:
                    c7:0c:9e:d2:4c:a5:0c:bf:76:a5:9d:c1:98:5b:c2:
                    cb:90:da:03:80:70:34:8b:73:a3:a5:1e:2d:65:26:
                    09:24:de:39:39:b4:08:7c:20:0c:ad:92:4f:a3:4b:
                    11:9d
                Exponent: 65537 (0x10001)
        X509v3 extensions:
            X509v3 Basic Constraints: critical
                CA:FALSE
            X509v3 Subject Key Identifier: 
                89:C3:94:D4:57:12:E7:76:66:55:DC:E9:66:56:00:C4:9E:DB:9D:30
            X509v3 Authority Key Identifier: 
                keyid:2F:62:E5:AE:55:4F:D5:4A:9F:58:F8:FF:72:A3:69:A3:F7:0D:1C:00
                DirName:/CN=devcert
                serial:40:A3:E1:44:1D:E4:88:6E:20:A5:11:04:F2:02:BA:34:0A:57:C4:44

            X509v3 Key Usage: critical
                Digital Signature, Key Encipherment
            X509v3 Extended Key Usage: 
                TLS Web Server Authentication
            X509v3 Subject Alternative Name: 
                DNS:localhost, DNS:*.localhost
    Signature Algorithm: sha256WithRSAEncryption
         c2:39:b0:7b:a0:eb:78:2a:34:d4:e0:94:08:f7:f8:a6:bd:df:
         d5:67:de:72:ed:cf:6a:39:3c:2c:28:68:58:e5:71:08:b9:d0:
         cf:33:75:10:fe:ea:0f:21:0b:9b:bd:1f:8c:3f:34:22:9d:cc:
         49:cb:ae:7e:d6:64:60:6f:47:96:22:44:7f:65:aa:0f:f1:10:
         46:5f:5d:06:6e:14:7f:10:8d:73:52:14:32:38:9d:3c:4a:e2:
         57:b9:7d:83:51:aa:03:f8:e6:4b:46:7d:1f:e1:60:90:bb:e6:
         5c:85:ae:b1:45:52:be:74:d8:e4:63:5b:9a:f7:26:21:64:88:
         b7:51:07:98:d7:7b:9a:75:f0:c2:41:da:a3:24:2b:3b:cd:e8:
         e8:5b:49:4c:f6:ff:81:4a:a1:7a:64:3a:41:84:bc:26:51:ad:
         f5:f8:7b:b7:bf:90:b5:51:4a:3e:44:de:37:c7:13:d0:4f:b2:
         60:4c:39:c9:4a:f5:49:0a:c0:ae:a6:a7:6e:81:89:1f:4d:ee:
         05:ae:71:ab:81:2f:6f:20:a8:b0:f3:33:c3:45:9e:5d:5f:1b:
         b6:13:8d:66:e2:5c:fb:dc:87:d8:26:26:5b:d3:29:89:e4:8c:
         4a:48:6a:29:e5:39:cc:dc:d4:01:44:44:f3:60:3d:d9:de:18:
         56:79:a1:62
-----BEGIN CERTIFICATE-----
MIIDaTCCAlGgAwIBAgIBATANBgkqhkiG9w0BAQsFADASMRAwDgYDVQQDDAdkZXZj
ZXJ0MB4XDTIwMDUxMzIzMjYzNVoXDTIyMDgxNjIzMjYzNVowFDESMBAGA1UEAwwJ
bG9jYWxob3N0MIIBIjANBgkqhkiG9w0BAQEFAAOCAQ8AMIIBCgKCAQEA6EV6YM2u
9YQ9NJKxeWQ5mS8o8OVdNTt3i72e5ylfuNAeq1IKqm+031kMytf5qwhQ9T+f29p+
scFV9ExT+ZrP+RVFFf0IhBHauFEi4TogpHDnhi6rhKfeSeBHLSLExlj8QeoVbjOd
8Sa3/beqVJpHZUHl5PPc6UAPAsDOYSiy8X3X7acSQLPTIOgGVY/Yuu/OEwy41Bj8
dn+brEYy8UnOTplpOU2TLKkWJ2d83v1Bwtdmpmk6G/Pgzkxivhe0phZvRUX6HUDS
a8WMHZxite0KEXvHDJ7STKUMv3alncGYW8LLkNoDgHA0i3OjpR4tZSYJJN45ObQI
fCAMrZJPo0sRnQIDAQABo4HHMIHEMAwGA1UdEwEB/wQCMAAwHQYDVR0OBBYEFInD
lNRXEud2ZlXc6WZWAMSe250wME0GA1UdIwRGMESAFC9i5a5VT9VKn1j4/3KjaaP3
DRwAoRakFDASMRAwDgYDVQQDDAdkZXZjZXJ0ghRAo+FEHeSIbiClEQTyAro0ClfE
RDAOBgNVHQ8BAf8EBAMCBaAwEwYDVR0lBAwwCgYIKwYBBQUHAwEwIQYDVR0RBBow
GIIJbG9jYWxob3N0ggsqLmxvY2FsaG9zdDANBgkqhkiG9w0BAQsFAAOCAQEAwjmw
e6DreCo01OCUCPf4pr3f1Wfecu3Pajk8LChoWOVxCLnQzzN1EP7qDyELm70fjD80
Ip3MScuuftZkYG9HliJEf2WqD/EQRl9dBm4UfxCNc1IUMjidPEriV7l9g1GqA/jm
S0Z9H+FgkLvmXIWusUVSvnTY5GNbmvcmIWSIt1EHmNd7mnXwwkHaoyQrO83o6FtJ
TPb/gUqhemQ6QYS8JlGt9fh7t7+QtVFKPkTeN8cT0E+yYEw5yUr1SQrArqanboGJ
H03uBa5xq4EvbyCosPMzw0WeXV8bthONZuJc+9yH2CYmW9MpieSMSkhqKeU5zNzU
AURE82A92d4YVnmhYg==
-----END CERTIFICATE-----
